target datalayout = "e-m:e-p270:32:32-p271:32:32-p272:64:64-i64:64-i128:128-f80:128-n8:16:32:64-S128"
target triple = "x86_64-pc-linux-gnu"

%struct.dbcs_index = type { ptr, i8, i8 }

; Function Attrs: nounwind uwtable
define internal i64 @cp949_decode(ptr noundef %0, ptr noundef %1, ptr noundef %2, i64 noundef %3, ptr noundef %4) #0 {
  %6 = alloca i64, align 8
  %7 = alloca ptr, align 8
  %8 = alloca ptr, align 8
  %9 = alloca ptr, align 8
  %10 = alloca i64, align 8
  %11 = alloca ptr, align 8
  %12 = alloca i8, align 1
  %13 = alloca i32, align 4
  %14 = alloca i32, align 4
  store ptr %0, ptr %7, align 8, !tbaa !3
  store ptr %1, ptr %8, align 8, !tbaa !21
  store ptr %2, ptr %9, align 8, !tbaa !68
  store i64 %3, ptr %10, align 8, !tbaa !28
  store ptr %4, ptr %11, align 8, !tbaa !3
  br label %15

15:                                               ; preds = %210, %208, %5
  %16 = load i64, ptr %10, align 8, !tbaa !28
  %17 = icmp sgt i64 %16, 0
  br i1 %17, label %18, label %211

18:                                               ; preds = %15
  call void @llvm.lifetime.start.p0(i64 1, ptr %12) #9
  %19 = load ptr, ptr %9, align 8, !tbaa !68
  %20 = load ptr, ptr %19, align 8, !tbaa !17
  %21 = getelementptr i8, ptr %20, i64 0
  %22 = load i8, ptr %21, align 1, !tbaa !42
  store i8 %22, ptr %12, align 1, !tbaa !42
  call void @llvm.lifetime.start.p0(i64 4, ptr %13) #9
  %23 = load i8, ptr %12, align 1, !tbaa !42
  %24 = zext i8 %23 to i32
  %25 = icmp slt i32 %24, 128
  br i1 %25, label %26, label %45

26:                                               ; preds = %18
  br label %27

27:                                               ; preds = %26
  %28 = load ptr, ptr %11, align 8, !tbaa !3
  %29 = load i8, ptr %12, align 1, !tbaa !42
  %30 = zext i8 %29 to i32
  %31 = call i32 @_PyUnicodeWriter_WriteChar(ptr noundef %28, i32 noundef %30)
  %32 = icmp slt i32 %31, 0
  br i1 %32, label %33, label %34

33:                                               ; preds = %27
  store i64 -4, ptr %6, align 8
  store i32 1, ptr %14, align 4
  br label %208

34:                                               ; preds = %27
  br label %35

35:                                               ; preds = %34
  br label %36

36:                                               ; preds = %35
  br label %37

37:                                               ; preds = %36
  %38 = load ptr, ptr %9, align 8, !tbaa !68
  %39 = load ptr, ptr %38, align 8, !tbaa !17
  %40 = getelementptr i8, ptr %39, i64 1
  store ptr %40, ptr %38, align 8, !tbaa !17
  %41 = load i64, ptr %10, align 8, !tbaa !28
  %42 = sub i64 %41, 1
  store i64 %42, ptr %10, align 8, !tbaa !28
  br label %43

43:                                               ; preds = %37
  br label %44

44:                                               ; preds = %43
  store i32 2, ptr %14, align 4
  br label %208, !llvm.loop !83

45:                                               ; preds = %18
  br label %46

46:                                               ; preds = %45
  %47 = load i64, ptr %10, align 8, !tbaa !28
  %48 = icmp slt i64 %47, 2
  br i1 %48, label %49, label %50

49:                                               ; preds = %46
  store i64 -2, ptr %6, align 8
  store i32 1, ptr %14, align 4
  br label %208

50:                                               ; preds = %46
  br label %51

51:                                               ; preds = %50
  br label %52

52:                                               ; preds = %51
  %53 = load i8, ptr %12, align 1, !tbaa !42
  %54 = zext i8 %53 to i32
  %55 = xor i32 %54, 128
  %56 = sext i32 %55 to i64
  %57 = getelementptr [256 x %struct.dbcs_index], ptr @ksx1001_decmap, i64 0, i64 %56
  %58 = getelementptr inbounds nuw %struct.dbcs_index, ptr %57, i32 0, i32 0
  %59 = load ptr, ptr %58, align 16, !tbaa !78
  %60 = icmp ne ptr %59, null
  br i1 %60, label %61, label %131

61:                                               ; preds = %52
  %62 = load ptr, ptr %9, align 8, !tbaa !68
  %63 = load ptr, ptr %62, align 8, !tbaa !17
  %64 = getelementptr i8, ptr %63, i64 1
  %65 = load i8, ptr %64, align 1, !tbaa !42
  %66 = zext i8 %65 to i32
  %67 = xor i32 %66, 128
  %68 = load i8, ptr %12, align 1, !tbaa !42
  %69 = zext i8 %68 to i32
  %70 = xor i32 %69, 128
  %71 = sext i32 %70 to i64
  %72 = getelementptr [256 x %struct.dbcs_index], ptr @ksx1001_decmap, i64 0, i64 %71
  %73 = getelementptr inbounds nuw %struct.dbcs_index, ptr %72, i32 0, i32 1
  %74 = load i8, ptr %73, align 8, !tbaa !80
  %75 = zext i8 %74 to i32
  %76 = icmp sge i32 %67, %75
  br i1 %76, label %77, label %131

77:                                               ; preds = %61
  %78 = load ptr, ptr %9, align 8, !tbaa !68
  %79 = load ptr, ptr %78, align 8, !tbaa !17
  %80 = getelementptr i8, ptr %79, i64 1
  %81 = load i8, ptr %80, align 1, !tbaa !42
  %82 = zext i8 %81 to i32
  %83 = xor i32 %82, 128
  %84 = load i8, ptr %12, align 1, !tbaa !42
  %85 = zext i8 %84 to i32
  %86 = xor i32 %85, 128
  %87 = sext i32 %86 to i64
  %88 = getelementptr [256 x %struct.dbcs_index], ptr @ksx1001_decmap, i64 0, i64 %87
  %89 = getelementptr inbounds nuw %struct.dbcs_index, ptr %88, i32 0, i32 2
  %90 = load i8, ptr %89, align 1, !tbaa !81
  %91 = zext i8 %90 to i32
  %92 = icmp sle i32 %83, %91
  br i1 %92, label %93, label %131

93:                                               ; preds = %77
  %94 = load i8, ptr %12, align 1, !tbaa !42
  %95 = zext i8 %94 to i32
  %96 = xor i32 %95, 128
  %97 = sext i32 %96 to i64
  %98 = getelementptr [256 x %struct.dbcs_index], ptr @ksx1001_decmap, i64 0, i64 %97
  %99 = getelementptr inbounds nuw %struct.dbcs_index, ptr %98, i32 0, i32 0
  %100 = load ptr, ptr %99, align 16, !tbaa !78
  %101 = load ptr, ptr %9, align 8, !tbaa !68
  %102 = load ptr, ptr %101, align 8, !tbaa !17
  %103 = getelementptr i8, ptr %102, i64 1
  %104 = load i8, ptr %103, align 1, !tbaa !42
  %105 = zext i8 %104 to i32
  %106 = xor i32 %105, 128
  %107 = load i8, ptr %12, align 1, !tbaa !42
  %108 = zext i8 %107 to i32
  %109 = xor i32 %108, 128
  %110 = sext i32 %109 to i64
  %111 = getelementptr [256 x %struct.dbcs_index], ptr @ksx1001_decmap, i64 0, i64 %110
  %112 = getelementptr inbounds nuw %struct.dbcs_index, ptr %111, i32 0, i32 1
  %113 = load i8, ptr %112, align 8, !tbaa !80
  %114 = zext i8 %113 to i32
  %115 = sub i32 %106, %114
  %116 = sext i32 %115 to i64
  %117 = getelementptr i16, ptr %100, i64 %116
  %118 = load i16, ptr %117, align 2, !tbaa !76
  %119 = zext i16 %118 to i32
  store i32 %119, ptr %13, align 4, !tbaa !19
  %120 = icmp ne i32 %119, 65534
  br i1 %120, label %121, label %131

121:                                              ; preds = %93
  br label %122

122:                                              ; preds = %121
  %123 = load ptr, ptr %11, align 8, !tbaa !3
  %124 = load i32, ptr %13, align 4, !tbaa !19
  %125 = call i32 @_PyUnicodeWriter_WriteChar(ptr noundef %123, i32 noundef %124)
  %126 = icmp slt i32 %125, 0
  br i1 %126, label %127, label %128

127:                                              ; preds = %122
  store i64 -4, ptr %6, align 8
  store i32 1, ptr %14, align 4
  br label %208

128:                                              ; preds = %122
  br label %129

129:                                              ; preds = %128
  br label %130

130:                                              ; preds = %129
  br label %199

131:                                              ; preds = %93, %77, %61, %52
  %132 = load i8, ptr %12, align 1, !tbaa !42
  %133 = zext i8 %132 to i64
  %134 = getelementptr [256 x %struct.dbcs_index], ptr @cp949ext_decmap, i64 0, i64 %133
  %135 = getelementptr inbounds nuw %struct.dbcs_index, ptr %134, i32 0, i32 0
  %136 = load ptr, ptr %135, align 16, !tbaa !78
  %137 = icmp ne ptr %136, null
  br i1 %137, label %138, label %197

138:                                              ; preds = %131
  %139 = load ptr, ptr %9, align 8, !tbaa !68
  %140 = load ptr, ptr %139, align 8, !tbaa !17
  %141 = getelementptr i8, ptr %140, i64 1
  %142 = load i8, ptr %141, align 1, !tbaa !42
  %143 = zext i8 %142 to i32
  %144 = load i8, ptr %12, align 1, !tbaa !42
  %145 = zext i8 %144 to i64
  %146 = getelementptr [256 x %struct.dbcs_index], ptr @cp949ext_decmap, i64 0, i64 %145
  %147 = getelementptr inbounds nuw %struct.dbcs_index, ptr %146, i32 0, i32 1
  %148 = load i8, ptr %147, align 8, !tbaa !80
  %149 = zext i8 %148 to i32
  %150 = icmp sge i32 %143, %149
  br i1 %150, label %151, label %197

151:                                              ; preds = %138
  %152 = load ptr, ptr %9, align 8, !tbaa !68
  %153 = load ptr, ptr %152, align 8, !tbaa !17
  %154 = getelementptr i8, ptr %153, i64 1
  %155 = load i8, ptr %154, align 1, !tbaa !42
  %156 = zext i8 %155 to i32
  %157 = load i8, ptr %12, align 1, !tbaa !42
  %158 = zext i8 %157 to i64
  %159 = getelementptr [256 x %struct.dbcs_index], ptr @cp949ext_decmap, i64 0, i64 %158
  %160 = getelementptr inbounds nuw %struct.dbcs_index, ptr %159, i32 0, i32 2
  %161 = load i8, ptr %160, align 1, !tbaa !81
  %162 = zext i8 %161 to i32
  %163 = icmp sle i32 %156, %162
  br i1 %163, label %164, label %197

164:                                              ; preds = %151
  %165 = load i8, ptr %12, align 1, !tbaa !42
  %166 = zext i8 %165 to i64
  %167 = getelementptr [256 x %struct.dbcs_index], ptr @cp949ext_decmap, i64 0, i64 %166
  %168 = getelementptr inbounds nuw %struct.dbcs_index, ptr %167, i32 0, i32 0
  %169 = load ptr, ptr %168, align 16, !tbaa !78
  %170 = load ptr, ptr %9, align 8, !tbaa !68
  %171 = load ptr, ptr %170, align 8, !tbaa !17
  %172 = getelementptr i8, ptr %171, i64 1
  %173 = load i8, ptr %172, align 1, !tbaa !42
  %174 = zext i8 %173 to i32
  %175 = load i8, ptr %12, align 1, !tbaa !42
  %176 = zext i8 %175 to i64
  %177 = getelementptr [256 x %struct.dbcs_index], ptr @cp949ext_decmap, i64 0, i64 %176
  %178 = getelementptr inbounds nuw %struct.dbcs_index, ptr %177, i32 0, i32 1
  %179 = load i8, ptr %178, align 8, !tbaa !80
  %180 = zext i8 %179 to i32
  %181 = sub i32 %174, %180
  %182 = sext i32 %181 to i64
  %183 = getelementptr i16, ptr %169, i64 %182
  %184 = load i16, ptr %183, align 2, !tbaa !76
  %185 = zext i16 %184 to i32
  store i32 %185, ptr %13, align 4, !tbaa !19
  %186 = icmp ne i32 %185, 65534
  br i1 %186, label %187, label %197

187:                                              ; preds = %164
  br label %188

188:                                              ; preds = %187
  %189 = load ptr, ptr %11, align 8, !tbaa !3
  %190 = load i32, ptr %13, align 4, !tbaa !19
  %191 = call i32 @_PyUnicodeWriter_WriteChar(ptr noundef %189, i32 noundef %190)
  %192 = icmp slt i32 %191, 0
  br i1 %192, label %193, label %194

193:                                              ; preds = %188
  store i64 -4, ptr %6, align 8
  store i32 1, ptr %14, align 4
  br label %208

194:                                              ; preds = %188
  br label %195

195:                                              ; preds = %194
  br label %196

196:                                              ; preds = %195
  br label %198

197:                                              ; preds = %164, %151, %138, %131
  store i64 1, ptr %6, align 8
  store i32 1, ptr %14, align 4
  br label %208

198:                                              ; preds = %196
  br label %199

199:                                              ; preds = %198, %130
  br label %200

200:                                              ; preds = %199
  %201 = load ptr, ptr %9, align 8, !tbaa !68
  %202 = load ptr, ptr %201, align 8, !tbaa !17
  %203 = getelementptr i8, ptr %202, i64 2
  store ptr %203, ptr %201, align 8, !tbaa !17
  %204 = load i64, ptr %10, align 8, !tbaa !28
  %205 = sub i64 %204, 2
  store i64 %205, ptr %10, align 8, !tbaa !28
  br label %206

206:                                              ; preds = %200
  br label %207

207:                                              ; preds = %206
  store i32 0, ptr %14, align 4
  br label %208

208:                                              ; preds = %207, %197, %193, %127, %49, %44, %33
  call void @llvm.lifetime.end.p0(i64 4, ptr %13) #9
  call void @llvm.lifetime.end.p0(i64 1, ptr %12) #9
  %209 = load i32, ptr %14, align 4
  switch i32 %209, label %214 [
    i32 0, label %210
    i32 1, label %212
    i32 2, label %15
  ]

210:                                              ; preds = %208
  br label %15, !llvm.loop !83

211:                                              ; preds = %15
  store i64 0, ptr %6, align 8
  br label %212

212:                                              ; preds = %211, %208
  %213 = load i64, ptr %6, align 8
  ret i64 %213

214:                                              ; preds = %208
  unreachable
}