; Function Attrs: nounwind uwtable
define internal range(i64 -4, 2) i64 @cp949_decode(ptr readnone captures(none) %0, ptr readnone captures(none) %1, ptr noundef captures(none) %2, i64 noundef %3, ptr noundef %4) #0 {
  %6 = icmp sgt i64 %3, 0
  br i1 %6, label %.lr.ph.preheader, label %.thread

.lr.ph.preheader:                                 ; preds = %5
  %.pre = load ptr, ptr %2, align 8, !tbaa !37
  br label %.lr.ph

.lr.ph:                                           ; preds = %.lr.ph.preheader, %62
  %7 = phi ptr [ %64, %62 ], [ %.pre, %.lr.ph.preheader ]
  %.03256 = phi i64 [ %65, %62 ], [ %3, %.lr.ph.preheader ]
  %8 = load i8, ptr %7, align 1, !tbaa !34
  %9 = zext i8 %8 to i32
  %10 = icmp sgt i8 %8, -1
  br i1 %10, label %11, label %14

11:                                               ; preds = %.lr.ph
  %12 = tail call i32 @_PyUnicodeWriter_WriteChar(ptr noundef %4, i32 noundef %9) #7
  %13 = icmp slt i32 %12, 0
  br i1 %13, label %.thread, label %62, !llvm.loop !63

14:                                               ; preds = %.lr.ph
  %15 = icmp eq i64 %.03256, 1
  br i1 %15, label %.thread, label %16

16:                                               ; preds = %14
  %17 = and i32 %9, 127
  %18 = zext nneg i32 %17 to i64
  %19 = getelementptr [256 x %struct.dbcs_index], ptr @ksx1001_decmap, i64 0, i64 %18
  %20 = load ptr, ptr %19, align 16, !tbaa !58
  %.not = icmp eq ptr %20, null
  br i1 %.not, label %40, label %21

21:                                               ; preds = %16
  %22 = getelementptr i8, ptr %7, i64 1
  %23 = load i8, ptr %22, align 1, !tbaa !34
  %24 = xor i8 %23, -128
  %25 = zext i8 %24 to i64
  %26 = getelementptr inbounds nuw i8, ptr %19, i64 8
  %27 = load i8, ptr %26, align 8, !tbaa !60
  %28 = zext i8 %27 to i64
  %.not44 = icmp ult i8 %24, %27
  br i1 %.not44, label %40, label %29

29:                                               ; preds = %21
  %30 = getelementptr inbounds nuw i8, ptr %19, i64 9
  %31 = load i8, ptr %30, align 1, !tbaa !61
  %.not45 = icmp ugt i8 %24, %31
  br i1 %.not45, label %40, label %32

32:                                               ; preds = %29
  %33 = sub nsw i64 %25, %28
  %34 = getelementptr i16, ptr %20, i64 %33
  %35 = load i16, ptr %34, align 2, !tbaa !49
  %.not46 = icmp eq i16 %35, -2
  br i1 %.not46, label %40, label %36

36:                                               ; preds = %32
  %37 = zext i16 %35 to i32
  %38 = tail call i32 @_PyUnicodeWriter_WriteChar(ptr noundef %4, i32 noundef %37) #7
  %39 = icmp slt i32 %38, 0
  br i1 %39, label %.thread, label %62

40:                                               ; preds = %32, %29, %21, %16
  %41 = zext i8 %8 to i64
  %42 = getelementptr [256 x %struct.dbcs_index], ptr @cp949ext_decmap, i64 0, i64 %41
  %43 = load ptr, ptr %42, align 16, !tbaa !58
  %.not47 = icmp eq ptr %43, null
  br i1 %.not47, label %.thread, label %44

44:                                               ; preds = %40
  %45 = getelementptr i8, ptr %7, i64 1
  %46 = load i8, ptr %45, align 1, !tbaa !34
  %47 = zext i8 %46 to i64
  %48 = getelementptr inbounds nuw i8, ptr %42, i64 8
  %49 = load i8, ptr %48, align 8, !tbaa !60
  %50 = zext i8 %49 to i64
  %.not48 = icmp ult i8 %46, %49
  br i1 %.not48, label %.thread, label %51

51:                                               ; preds = %44
  %52 = getelementptr inbounds nuw i8, ptr %42, i64 9
  %53 = load i8, ptr %52, align 1, !tbaa !61
  %.not49 = icmp ugt i8 %46, %53
  br i1 %.not49, label %.thread, label %54

54:                                               ; preds = %51
  %55 = sub nsw i64 %47, %50
  %56 = getelementptr i16, ptr %43, i64 %55
  %57 = load i16, ptr %56, align 2, !tbaa !49
  %.not50 = icmp eq i16 %57, -2
  br i1 %.not50, label %.thread, label %58

58:                                               ; preds = %54
  %59 = zext i16 %57 to i32
  %60 = tail call i32 @_PyUnicodeWriter_WriteChar(ptr noundef %4, i32 noundef %59) #7
  %61 = icmp slt i32 %60, 0
  br i1 %61, label %.thread, label %62

62:                                               ; preds = %58, %36, %11
  %.sink75 = phi i64 [ 1, %11 ], [ 2, %36 ], [ 2, %58 ]
  %.sink = phi i64 [ -1, %11 ], [ -2, %36 ], [ -2, %58 ]
  %63 = load ptr, ptr %2, align 8, !tbaa !37
  %64 = getelementptr i8, ptr %63, i64 %.sink75
  store ptr %64, ptr %2, align 8, !tbaa !37
  %65 = add nsw i64 %.03256, %.sink
  %66 = icmp sgt i64 %65, 0
  br i1 %66, label %.lr.ph, label %.thread

.thread:                                          ; preds = %62, %11, %14, %36, %58, %54, %51, %44, %40, %5
  %.2 = phi i64 [ 0, %5 ], [ 1, %40 ], [ 1, %44 ], [ 1, %51 ], [ 1, %54 ], [ -4, %58 ], [ -4, %36 ], [ -2, %14 ], [ -4, %11 ], [ 0, %62 ]
  ret i64 %.2
}